target datalayout = "e-m:e-p270:32:32-p271:32:32-p272:64:64-i64:64-i128:128-f80:128-n8:16:32:64-S128"
target triple = "x86_64-pc-linux-gnu"

@Mode = external global i32, align 4

; Function Attrs: inlinehint nounwind uwtable
define internal ptr @DatumGetPointer(i64 noundef %0) #7 {
  %2 = alloca i64, align 8
  store i64 %0, ptr %2, align 8
  %3 = load i64, ptr %2, align 8
  %4 = inttoptr i64 %3 to ptr
  ret ptr %4
}

; Function Attrs: inlinehint nounwind uwtable
define internal i64 @CharGetDatum(i8 noundef signext %0) #7 {
  %2 = alloca i8, align 1
  store i8 %0, ptr %2, align 1
  %3 = load i8, ptr %2, align 1
  %4 = sext i8 %3 to i64
  ret i64 %4
}

; Function Attrs: inlinehint nounwind uwtable
define internal i64 @ObjectIdGetDatum(i32 noundef %0) #7 {
  %2 = alloca i32, align 4
  store i32 %0, ptr %2, align 4
  %3 = load i32, ptr %2, align 4
  %4 = zext i32 %3 to i64
  ret i64 %4
}

; Function Attrs: nounwind uwtable
define internal ptr @get_default_acl_internal(i32 noundef %0, i32 noundef %1, i8 noundef signext %2) #0 {
  %4 = alloca i32, align 4
  %5 = alloca i32, align 4
  %6 = alloca i8, align 1
  %7 = alloca ptr, align 8
  %8 = alloca ptr, align 8
  %9 = alloca i64, align 8
  %10 = alloca i8, align 1
  store i32 %0, ptr %4, align 4
  store i32 %1, ptr %5, align 4
  store i8 %2, ptr %6, align 1
  call void @llvm.lifetime.start.p0(i64 8, ptr %7) #9
  store ptr null, ptr %7, align 8
  call void @llvm.lifetime.start.p0(i64 8, ptr %8) #9
  %11 = load i32, ptr %4, align 4
  %12 = call i64 @ObjectIdGetDatum(i32 noundef %11)
  %13 = load i32, ptr %5, align 4
  %14 = call i64 @ObjectIdGetDatum(i32 noundef %13)
  %15 = load i8, ptr %6, align 1
  %16 = call i64 @CharGetDatum(i8 noundef signext %15)
  %17 = call ptr @SearchSysCache3(i32 noundef 22, i64 noundef %12, i64 noundef %14, i64 noundef %16)
  store ptr %17, ptr %8, align 8
  %18 = load ptr, ptr %8, align 8
  %19 = icmp ne ptr %18, null
  br i1 %19, label %20, label %31

20:                                               ; preds = %3
  call void @llvm.lifetime.start.p0(i64 8, ptr %9) #9
  call void @llvm.lifetime.start.p0(i64 1, ptr %10) #9
  %21 = load ptr, ptr %8, align 8
  %22 = call i64 @SysCacheGetAttr(i32 noundef 22, ptr noundef %21, i16 noundef signext 5, ptr noundef %10)
  store i64 %22, ptr %9, align 8
  %23 = load i8, ptr %10, align 1, !range !4, !noundef !5
  %24 = trunc i8 %23 to i1
  br i1 %24, label %29, label %25

25:                                               ; preds = %20
  %26 = load i64, ptr %9, align 8
  %27 = call ptr @DatumGetPointer(i64 noundef %26)
  %28 = call ptr @pg_detoast_datum_copy(ptr noundef %27)
  store ptr %28, ptr %7, align 8
  br label %29

29:                                               ; preds = %25, %20
  %30 = load ptr, ptr %8, align 8
  call void @ReleaseSysCache(ptr noundef %30)
  call void @llvm.lifetime.end.p0(i64 1, ptr %10) #9
  call void @llvm.lifetime.end.p0(i64 8, ptr %9) #9
  br label %31

31:                                               ; preds = %29, %3
  %32 = load ptr, ptr %7, align 8
  call void @llvm.lifetime.end.p0(i64 8, ptr %8) #9
  call void @llvm.lifetime.end.p0(i64 8, ptr %7) #9
  ret ptr %32
}

; Function Attrs: nounwind uwtable
define dso_local ptr @get_user_default_acl(i32 noundef %0, i32 noundef %1, i32 noundef %2) #0 {
  %4 = alloca ptr, align 8
  %5 = alloca i32, align 4
  %6 = alloca i32, align 4
  %7 = alloca i32, align 4
  %8 = alloca ptr, align 8
  %9 = alloca ptr, align 8
  %10 = alloca ptr, align 8
  %11 = alloca ptr, align 8
  %12 = alloca i8, align 1
  %13 = alloca i32, align 4
  store i32 %0, ptr %5, align 4
  store i32 %1, ptr %6, align 4
  store i32 %2, ptr %7, align 4
  call void @llvm.lifetime.start.p0(i64 8, ptr %8) #9
  call void @llvm.lifetime.start.p0(i64 8, ptr %9) #9
  call void @llvm.lifetime.start.p0(i64 8, ptr %10) #9
  call void @llvm.lifetime.start.p0(i64 8, ptr %11) #9
  call void @llvm.lifetime.start.p0(i64 1, ptr %12) #9
  %14 = load i32, ptr @Mode, align 4
  %15 = icmp eq i32 %14, 0
  br i1 %15, label %16, label %17

16:                                               ; preds = %3
  store ptr null, ptr %4, align 8
  store i32 1, ptr %13, align 4
  br label %60

17:                                               ; preds = %3
  %18 = load i32, ptr %5, align 4
  switch i32 %18, label %24 [
    i32 41, label %19
    i32 37, label %20
    i32 19, label %21
    i32 49, label %22
    i32 36, label %23
  ]

19:                                               ; preds = %17
  store i8 114, ptr %12, align 1
  br label %25

20:                                               ; preds = %17
  store i8 83, ptr %12, align 1
  br label %25

21:                                               ; preds = %17
  store i8 102, ptr %12, align 1
  br label %25

22:                                               ; preds = %17
  store i8 84, ptr %12, align 1
  br label %25

23:                                               ; preds = %17
  store i8 110, ptr %12, align 1
  br label %25

24:                                               ; preds = %17
  store ptr null, ptr %4, align 8
  store i32 1, ptr %13, align 4
  br label %60

25:                                               ; preds = %23, %22, %21, %20, %19
  %26 = load i32, ptr %6, align 4
  %27 = load i8, ptr %12, align 1
  %28 = call ptr @get_default_acl_internal(i32 noundef %26, i32 noundef 0, i8 noundef signext %27)
  store ptr %28, ptr %9, align 8
  %29 = load i32, ptr %6, align 4
  %30 = load i32, ptr %7, align 4
  %31 = load i8, ptr %12, align 1
  %32 = call ptr @get_default_acl_internal(i32 noundef %29, i32 noundef %30, i8 noundef signext %31)
  store ptr %32, ptr %10, align 8
  %33 = load ptr, ptr %9, align 8
  %34 = icmp eq ptr %33, null
  br i1 %34, label %35, label %39

35:                                               ; preds = %25
  %36 = load ptr, ptr %10, align 8
  %37 = icmp eq ptr %36, null
  br i1 %37, label %38, label %39

38:                                               ; preds = %35
  store ptr null, ptr %4, align 8
  store i32 1, ptr %13, align 4
  br label %60

39:                                               ; preds = %35, %25
  %40 = load i32, ptr %5, align 4
  %41 = load i32, ptr %6, align 4
  %42 = call ptr @acldefault(i32 noundef %40, i32 noundef %41)
  store ptr %42, ptr %11, align 8
  %43 = load ptr, ptr %9, align 8
  %44 = icmp eq ptr %43, null
  br i1 %44, label %45, label %47

45:                                               ; preds = %39
  %46 = load ptr, ptr %11, align 8
  store ptr %46, ptr %9, align 8
  br label %47

47:                                               ; preds = %45, %39
  %48 = load ptr, ptr %9, align 8
  %49 = load ptr, ptr %10, align 8
  %50 = load i32, ptr %6, align 4
  %51 = call ptr @aclmerge(ptr noundef %48, ptr noundef %49, i32 noundef %50)
  store ptr %51, ptr %8, align 8
  %52 = load ptr, ptr %8, align 8
  call void @aclitemsort(ptr noundef %52)
  %53 = load ptr, ptr %11, align 8
  call void @aclitemsort(ptr noundef %53)
  %54 = load ptr, ptr %8, align 8
  %55 = load ptr, ptr %11, align 8
  %56 = call zeroext i1 @aclequal(ptr noundef %54, ptr noundef %55)
  br i1 %56, label %57, label %58

57:                                               ; preds = %47
  store ptr null, ptr %8, align 8
  br label %58

58:                                               ; preds = %57, %47
  %59 = load ptr, ptr %8, align 8
  store ptr %59, ptr %4, align 8
  store i32 1, ptr %13, align 4
  br label %60

60:                                               ; preds = %58, %38, %24, %16
  call void @llvm.lifetime.end.p0(i64 1, ptr %12) #9
  call void @llvm.lifetime.end.p0(i64 8, ptr %11) #9
  call void @llvm.lifetime.end.p0(i64 8, ptr %10) #9
  call void @llvm.lifetime.end.p0(i64 8, ptr %9) #9
  call void @llvm.lifetime.end.p0(i64 8, ptr %8) #9
  %61 = load ptr, ptr %4, align 8
  ret ptr %61
}