; Function Attrs: nounwind uwtable
define dso_local ptr @get_user_default_acl(i32 noundef %0, i32 noundef %1, i32 noundef %2) local_unnamed_addr #0 {
  %4 = alloca i8, align 1
  %5 = alloca i8, align 1
  %6 = load i32, ptr @Mode, align 4
  %7 = icmp eq i32 %6, 0
  br i1 %7, label %40, label %8

8:                                                ; preds = %3
  switch i32 %0, label %40 [
    i32 41, label %13
    i32 37, label %9
    i32 19, label %10
    i32 49, label %11
    i32 36, label %12
  ]

9:                                                ; preds = %8
  br label %13

10:                                               ; preds = %8
  br label %13

11:                                               ; preds = %8
  br label %13

12:                                               ; preds = %8
  br label %13

13:                                               ; preds = %8, %12, %11, %10, %9
  %.0 = phi i64 [ 110, %12 ], [ 84, %11 ], [ 102, %10 ], [ 83, %9 ], [ 114, %8 ]
  %14 = zext i32 %1 to i64
  %15 = tail call ptr @SearchSysCache3(i32 noundef 22, i64 noundef %14, i64 noundef 0, i64 noundef %.0) #9
  %.not.i = icmp eq ptr %15, null
  br i1 %.not.i, label %get_default_acl_internal.exit, label %16

16:                                               ; preds = %13
  call void @llvm.lifetime.start.p0(i64 1, ptr nonnull %5) #9
  %17 = call i64 @SysCacheGetAttr(i32 noundef 22, ptr noundef nonnull %15, i16 noundef signext 5, ptr noundef nonnull %5) #9
  %18 = load i8, ptr %5, align 1, !range !4, !noundef !5
  %19 = trunc nuw i8 %18 to i1
  br i1 %19, label %23, label %20

20:                                               ; preds = %16
  %21 = inttoptr i64 %17 to ptr
  %22 = call ptr @pg_detoast_datum_copy(ptr noundef %21) #9
  br label %23

23:                                               ; preds = %20, %16
  %.1.i = phi ptr [ null, %16 ], [ %22, %20 ]
  call void @ReleaseSysCache(ptr noundef nonnull %15) #9
  call void @llvm.lifetime.end.p0(i64 1, ptr nonnull %5) #9
  br label %get_default_acl_internal.exit

get_default_acl_internal.exit:                    ; preds = %13, %23
  %.0.i = phi ptr [ %.1.i, %23 ], [ null, %13 ]
  %24 = zext i32 %2 to i64
  %25 = call ptr @SearchSysCache3(i32 noundef 22, i64 noundef %14, i64 noundef %24, i64 noundef %.0) #9
  %.not.i25 = icmp eq ptr %25, null
  br i1 %.not.i25, label %get_default_acl_internal.exit28, label %26

26:                                               ; preds = %get_default_acl_internal.exit
  call void @llvm.lifetime.start.p0(i64 1, ptr nonnull %4) #9
  %27 = call i64 @SysCacheGetAttr(i32 noundef 22, ptr noundef nonnull %25, i16 noundef signext 5, ptr noundef nonnull %4) #9
  %28 = load i8, ptr %4, align 1, !range !4, !noundef !5
  %29 = trunc nuw i8 %28 to i1
  br i1 %29, label %33, label %30

30:                                               ; preds = %26
  %31 = inttoptr i64 %27 to ptr
  %32 = call ptr @pg_detoast_datum_copy(ptr noundef %31) #9
  br label %33

33:                                               ; preds = %30, %26
  %.1.i26 = phi ptr [ null, %26 ], [ %32, %30 ]
  call void @ReleaseSysCache(ptr noundef nonnull %25) #9
  call void @llvm.lifetime.end.p0(i64 1, ptr nonnull %4) #9
  br label %get_default_acl_internal.exit28

get_default_acl_internal.exit28:                  ; preds = %get_default_acl_internal.exit, %33
  %.0.i27 = phi ptr [ %.1.i26, %33 ], [ null, %get_default_acl_internal.exit ]
  %34 = icmp eq ptr %.0.i, null
  %35 = icmp eq ptr %.0.i27, null
  %or.cond = select i1 %34, i1 %35, i1 false
  br i1 %or.cond, label %40, label %36

36:                                               ; preds = %get_default_acl_internal.exit28
  %37 = call ptr @acldefault(i32 noundef %0, i32 noundef %1) #9
  %spec.select = select i1 %34, ptr %37, ptr %.0.i
  %38 = call ptr @aclmerge(ptr noundef %spec.select, ptr noundef %.0.i27, i32 noundef %1) #9
  call void @aclitemsort(ptr noundef %38) #9
  call void @aclitemsort(ptr noundef %37) #9
  %39 = call zeroext i1 @aclequal(ptr noundef %38, ptr noundef %37) #9
  %.022 = select i1 %39, ptr null, ptr %38
  br label %40

40:                                               ; preds = %get_default_acl_internal.exit28, %8, %3, %36
  %.021 = phi ptr [ %.022, %36 ], [ null, %3 ], [ null, %8 ], [ null, %get_default_acl_internal.exit28 ]
  ret ptr %.021
}